target datalayout = "e-m:e-p270:32:32-p271:32:32-p272:64:64-i64:64-i128:128-f80:128-n8:16:32:64-S128"
target triple = "x86_64-pc-linux-gnu"

%struct.ForEachState = type { ptr, i32 }
%union.ListCell = type { ptr }
%struct.RestrictInfo = type { i32, ptr, i8, i8, i8, i8, i8, i8, i32, i32, i32, ptr, ptr, ptr, ptr, ptr, ptr, ptr, i32, ptr, %struct.QualCost, double, double, ptr, ptr, ptr, ptr, ptr, ptr, i8, i32, double, double, double, double, i32, i32 }
%struct.QualCost = type { double, double }
%struct.List = type { i32, i32, i32, ptr, [0 x %union.ListCell] }

; Function Attrs: nounwind uwtable
define dso_local zeroext i1 @is_redundant_derived_clause(ptr noundef %0, ptr noundef %1) #0 {
  %3 = alloca i1, align 1
  %4 = alloca ptr, align 8
  %5 = alloca ptr, align 8
  %6 = alloca ptr, align 8
  %7 = alloca ptr, align 8
  %8 = alloca i32, align 4
  %9 = alloca %struct.ForEachState, align 8
  %10 = alloca ptr, align 8
  store ptr %0, ptr %4, align 8
  store ptr %1, ptr %5, align 8
  call void @llvm.lifetime.start.p0(i64 8, ptr %6) #6
  %11 = load ptr, ptr %4, align 8
  %12 = getelementptr inbounds nuw %struct.RestrictInfo, ptr %11, i32 0, i32 19
  %13 = load ptr, ptr %12, align 8
  store ptr %13, ptr %6, align 8
  call void @llvm.lifetime.start.p0(i64 8, ptr %7) #6
  %14 = load ptr, ptr %6, align 8
  %15 = icmp eq ptr %14, null
  br i1 %15, label %16, label %17

16:                                               ; preds = %2
  store i1 false, ptr %3, align 1
  store i32 1, ptr %8, align 4
  br label %68

17:                                               ; preds = %2
  call void @llvm.lifetime.start.p0(i64 16, ptr %9) #6
  %18 = getelementptr inbounds nuw %struct.ForEachState, ptr %9, i32 0, i32 0
  %19 = load ptr, ptr %5, align 8
  store ptr %19, ptr %18, align 8
  %20 = getelementptr inbounds nuw %struct.ForEachState, ptr %9, i32 0, i32 1
  store i32 0, ptr %20, align 8
  %21 = getelementptr i8, ptr %9, i64 12
  call void @llvm.memset.p0.i64(ptr align 4 %21, i8 0, i64 4, i1 false)
  br label %22

22:                                               ; preds = %61, %17
  %23 = getelementptr inbounds nuw %struct.ForEachState, ptr %9, i32 0, i32 0
  %24 = load ptr, ptr %23, align 8
  %25 = icmp ne ptr %24, null
  br i1 %25, label %26, label %43

26:                                               ; preds = %22
  %27 = getelementptr inbounds nuw %struct.ForEachState, ptr %9, i32 0, i32 1
  %28 = load i32, ptr %27, align 8
  %29 = getelementptr inbounds nuw %struct.ForEachState, ptr %9, i32 0, i32 0
  %30 = load ptr, ptr %29, align 8
  %31 = getelementptr inbounds nuw %struct.List, ptr %30, i32 0, i32 1
  %32 = load i32, ptr %31, align 4
  %33 = icmp slt i32 %28, %32
  br i1 %33, label %34, label %43

34:                                               ; preds = %26
  %35 = getelementptr inbounds nuw %struct.ForEachState, ptr %9, i32 0, i32 0
  %36 = load ptr, ptr %35, align 8
  %37 = getelementptr inbounds nuw %struct.List, ptr %36, i32 0, i32 3
  %38 = load ptr, ptr %37, align 8
  %39 = getelementptr inbounds nuw %struct.ForEachState, ptr %9, i32 0, i32 1
  %40 = load i32, ptr %39, align 8
  %41 = sext i32 %40 to i64
  %42 = getelementptr inbounds %union.ListCell, ptr %38, i64 %41
  store ptr %42, ptr %7, align 8
  br label %44

43:                                               ; preds = %26, %22
  store ptr null, ptr %7, align 8
  br label %44

44:                                               ; preds = %43, %34
  %45 = phi i32 [ 1, %34 ], [ 0, %43 ]
  %46 = icmp ne i32 %45, 0
  br i1 %46, label %48, label %47

47:                                               ; preds = %44
  store i32 2, ptr %8, align 4
  br label %65

48:                                               ; preds = %44
  call void @llvm.lifetime.start.p0(i64 8, ptr %10) #6
  %49 = load ptr, ptr %7, align 8
  %50 = load ptr, ptr %49, align 8
  store ptr %50, ptr %10, align 8
  %51 = load ptr, ptr %10, align 8
  %52 = getelementptr inbounds nuw %struct.RestrictInfo, ptr %51, i32 0, i32 19
  %53 = load ptr, ptr %52, align 8
  %54 = load ptr, ptr %6, align 8
  %55 = icmp eq ptr %53, %54
  br i1 %55, label %56, label %57

56:                                               ; preds = %48
  store i1 true, ptr %3, align 1
  store i32 1, ptr %8, align 4
  br label %58

57:                                               ; preds = %48
  store i32 0, ptr %8, align 4
  br label %58

58:                                               ; preds = %57, %56
  call void @llvm.lifetime.end.p0(i64 8, ptr %10) #6
  %59 = load i32, ptr %8, align 4
  switch i32 %59, label %65 [
    i32 0, label %60
  ]

60:                                               ; preds = %58
  br label %61

61:                                               ; preds = %60
  %62 = getelementptr inbounds nuw %struct.ForEachState, ptr %9, i32 0, i32 1
  %63 = load i32, ptr %62, align 8
  %64 = add i32 %63, 1
  store i32 %64, ptr %62, align 8
  br label %22, !llvm.loop !68

65:                                               ; preds = %58, %47
  call void @llvm.lifetime.end.p0(i64 16, ptr %9) #6
  %66 = load i32, ptr %8, align 4
  switch i32 %66, label %68 [
    i32 2, label %67
  ]

67:                                               ; preds = %65
  store i1 false, ptr %3, align 1
  store i32 1, ptr %8, align 4
  br label %68

68:                                               ; preds = %67, %65, %16
  call void @llvm.lifetime.end.p0(i64 8, ptr %7) #6
  call void @llvm.lifetime.end.p0(i64 8, ptr %6) #6
  %69 = load i1, ptr %3, align 1
  ret i1 %69
}