; Function Attrs: nofree norecurse nosync nounwind memory(read, inaccessiblemem: none) uwtable
define dso_local noundef zeroext i1 @is_redundant_derived_clause(ptr noundef readonly captures(none) %0, ptr noundef readonly captures(address_is_null) %1) local_unnamed_addr #4 {
  %3 = getelementptr inbounds nuw i8, ptr %0, i64 104
  %4 = load ptr, ptr %3, align 8
  %5 = icmp eq ptr %4, null
  br i1 %5, label %.loopexit, label %.preheader

.preheader:                                       ; preds = %2
  %6 = getelementptr inbounds nuw i8, ptr %1, i64 16
  %.not = icmp eq ptr %1, null
  br i1 %.not, label %.loopexit, label %.lr.ph

.lr.ph:                                           ; preds = %.preheader
  %7 = getelementptr inbounds nuw i8, ptr %1, i64 4
  %8 = load i32, ptr %7, align 4
  %9 = icmp sgt i32 %8, 0
  br i1 %9, label %.lr.ph33, label %.loopexit

.lr.ph33:                                         ; preds = %.lr.ph
  %10 = load ptr, ptr %6, align 8
  %wide.trip.count = zext nneg i32 %8 to i64
  br label %11

11:                                               ; preds = %11, %.lr.ph33
  %indvars.iv = phi i64 [ 0, %.lr.ph33 ], [ %indvars.iv.next, %11 ]
  %12 = getelementptr inbounds nuw %union.ListCell, ptr %10, i64 %indvars.iv
  %13 = load ptr, ptr %12, align 8
  %14 = getelementptr inbounds nuw i8, ptr %13, i64 104
  %15 = load ptr, ptr %14, align 8
  %.not19 = icmp eq ptr %15, %4
  %indvars.iv.next = add nuw nsw i64 %indvars.iv, 1
  %exitcond.not = icmp eq i64 %indvars.iv.next, %wide.trip.count
  %or.cond = select i1 %.not19, i1 true, i1 %exitcond.not
  br i1 %or.cond, label %.loopexit, label %11

.loopexit:                                        ; preds = %11, %.preheader, %.lr.ph, %2
  %.0 = phi i1 [ false, %2 ], [ false, %.preheader ], [ false, %.lr.ph ], [ %.not19, %11 ]
  ret i1 %.0
}